target datalayout = "e-m:e-p270:32:32-p271:32:32-p272:64:64-i64:64-i128:128-f80:128-n8:16:32:64-S128"
target triple = "x86_64-unknown-linux-gnu"

%"struct.rocksdb::LevelDBOptions" = type { ptr, i8, i8, i8, ptr, ptr, i64, i32, ptr, i64, i32, i8, ptr }

; Function Attrs: mustprogress uwtable
define void @_ZN7rocksdb14LevelDBOptionsC2Ev(ptr noundef nonnull align 8 dereferenceable(80) %this) unnamed_addr #0 align 2 {
entry:
  %this.addr = alloca ptr, align 8
  store ptr %this, ptr %this.addr, align 8
  %this1 = load ptr, ptr %this.addr, align 8
  %comparator = getelementptr inbounds %"struct.rocksdb::LevelDBOptions", ptr %this1, i32 0, i32 0
  %call = call noundef ptr @_ZN7rocksdb18BytewiseComparatorEv()
  store ptr %call, ptr %comparator, align 8
  %create_if_missing = getelementptr inbounds %"struct.rocksdb::LevelDBOptions", ptr %this1, i32 0, i32 1
  store i8 0, ptr %create_if_missing, align 8
  %error_if_exists = getelementptr inbounds %"struct.rocksdb::LevelDBOptions", ptr %this1, i32 0, i32 2
  store i8 0, ptr %error_if_exists, align 1
  %paranoid_checks = getelementptr inbounds %"struct.rocksdb::LevelDBOptions", ptr %this1, i32 0, i32 3
  store i8 0, ptr %paranoid_checks, align 2
  %env = getelementptr inbounds %"struct.rocksdb::LevelDBOptions", ptr %this1, i32 0, i32 4
  %call2 = call noundef ptr @_ZN7rocksdb3Env7DefaultEv()
  store ptr %call2, ptr %env, align 8
  %info_log = getelementptr inbounds %"struct.rocksdb::LevelDBOptions", ptr %this1, i32 0, i32 5
  store ptr null, ptr %info_log, align 8
  %write_buffer_size = getelementptr inbounds %"struct.rocksdb::LevelDBOptions", ptr %this1, i32 0, i32 6
  store i64 4194304, ptr %write_buffer_size, align 8
  %max_open_files = getelementptr inbounds %"struct.rocksdb::LevelDBOptions", ptr %this1, i32 0, i32 7
  store i32 1000, ptr %max_open_files, align 8
  %block_cache = getelementptr inbounds %"struct.rocksdb::LevelDBOptions", ptr %this1, i32 0, i32 8
  store ptr null, ptr %block_cache, align 8
  %block_size = getelementptr inbounds %"struct.rocksdb::LevelDBOptions", ptr %this1, i32 0, i32 9
  store i64 4096, ptr %block_size, align 8
  %block_restart_interval = getelementptr inbounds %"struct.rocksdb::LevelDBOptions", ptr %this1, i32 0, i32 10
  store i32 16, ptr %block_restart_interval, align 8
  %compression = getelementptr inbounds %"struct.rocksdb::LevelDBOptions", ptr %this1, i32 0, i32 11
  store i8 1, ptr %compression, align 4
  %filter_policy = getelementptr inbounds %"struct.rocksdb::LevelDBOptions", ptr %this1, i32 0, i32 12
  store ptr null, ptr %filter_policy, align 8
  ret void
}