; Function Attrs: mustprogress uwtable
define void @_ZN7rocksdb14LevelDBOptionsC2Ev(ptr nocapture noundef nonnull writeonly align 8 dereferenceable(80) %this) unnamed_addr #0 align 2 {
entry:
  %call = tail call noundef ptr @_ZN7rocksdb18BytewiseComparatorEv()
  store ptr %call, ptr %this, align 8
  %create_if_missing = getelementptr inbounds i8, ptr %this, i64 8
  store i8 0, ptr %create_if_missing, align 8
  %error_if_exists = getelementptr inbounds i8, ptr %this, i64 9
  store i8 0, ptr %error_if_exists, align 1
  %paranoid_checks = getelementptr inbounds i8, ptr %this, i64 10
  store i8 0, ptr %paranoid_checks, align 2
  %env = getelementptr inbounds i8, ptr %this, i64 16
  %call2 = tail call noundef ptr @_ZN7rocksdb3Env7DefaultEv()
  store ptr %call2, ptr %env, align 8
  %info_log = getelementptr inbounds i8, ptr %this, i64 24
  store ptr null, ptr %info_log, align 8
  %write_buffer_size = getelementptr inbounds i8, ptr %this, i64 32
  store i64 4194304, ptr %write_buffer_size, align 8
  %max_open_files = getelementptr inbounds i8, ptr %this, i64 40
  store i32 1000, ptr %max_open_files, align 8
  %block_cache = getelementptr inbounds i8, ptr %this, i64 48
  store ptr null, ptr %block_cache, align 8
  %block_size = getelementptr inbounds i8, ptr %this, i64 56
  store i64 4096, ptr %block_size, align 8
  %block_restart_interval = getelementptr inbounds i8, ptr %this, i64 64
  store i32 16, ptr %block_restart_interval, align 8
  %compression = getelementptr inbounds i8, ptr %this, i64 68
  store i8 1, ptr %compression, align 4
  %filter_policy = getelementptr inbounds i8, ptr %this, i64 72
  store ptr null, ptr %filter_policy, align 8
  ret void
}